target datalayout = "e-m:e-p270:32:32-p271:32:32-p272:64:64-i64:64-i128:128-f80:128-n8:16:32:64-S128"
target triple = "x86_64-pc-linux-gnu"

%struct._value_string_ext = type { ptr, i32, i32, ptr, ptr }
%struct.ansi_a_shared_data_t = type { ptr, ptr, ptr, i8, i8, %struct._address, i32, %struct.e_in6_addr, i16, i8 }
%struct._address = type { i32, i32, ptr, ptr }
%struct.e_in6_addr = type { [16 x i8] }
%struct._packet_info = type { ptr, ptr, i32, i32, %struct.nstime_t, %struct.nstime_t, %struct.nstime_t, i8, ptr, ptr, ptr, ptr, %struct._address, %struct._address, %struct._address, %struct._address, %struct._address, %struct._address, i32, ptr, i8, [3 x i8], %struct.anon, i32, i32, i32, i32, ptr, i8, ptr, ptr, i16, i16, i32, i32, i16, i32, i32, ptr, ptr, ptr, i8, i8, i16, i16, i16, i32, i16, i16, ptr, ptr, ptr, ptr, ptr, i32, i32 }
%struct.nstime_t = type { i64, i32 }
%struct.anon = type { i8, [3 x i8] }

@.str.275 = private unnamed_addr constant [9 x i8] c"Reserved\00", align 1
@hf_ansi_a_so = internal global i32 0, align 4
@hf_ansi_a_so_proprietary_ind = internal global i32 0, align 4
@hf_ansi_a_so_revision = internal global i32 0, align 4
@hf_ansi_a_so_base_so_num = internal global i32 0, align 4
@global_a_info_display = internal global i8 1, align 1
@.str.1018 = private unnamed_addr constant [3 x i8] c"%s\00", align 1
@.str.1026 = private unnamed_addr constant [11 x i8] c" - (%u) %s\00", align 1
@ansi_a_so_str_vals_ext = internal global %struct._value_string_ext { ptr @_try_val_to_str_ext_init, i32 0, i32 186, ptr @ansi_a_so_str_vals, ptr @.str.1221 }, align 8
@.str.1220 = private unnamed_addr constant [38 x i8] c"Reserved for standard service options\00", align 1
@.str.1387 = private unnamed_addr constant [11 x i8] c" - SO (%u)\00", align 1
@.str.1388 = private unnamed_addr constant [10 x i8] c"- SO (%u)\00", align 1

; Function Attrs: null_pointer_is_valid sspstrong uwtable
define internal ptr @ansi_a_so_int_to_str(i32 noundef %0) #1 {
  %2 = alloca i32, align 4
  %3 = alloca ptr, align 8
  store i32 %0, ptr %2, align 4
  call void @llvm.lifetime.start.p0(i64 8, ptr %3) #8
  %4 = load i32, ptr %2, align 4
  %5 = call ptr @try_val_to_str_ext(i32 noundef %4, ptr noundef @ansi_a_so_str_vals_ext)
  store ptr %5, ptr %3, align 8
  %6 = load ptr, ptr %3, align 8
  %7 = icmp eq ptr %6, null
  br i1 %7, label %8, label %17

8:                                                ; preds = %1
  %9 = load i32, ptr %2, align 4
  %10 = icmp sge i32 %9, 4105
  br i1 %10, label %11, label %15

11:                                               ; preds = %8
  %12 = load i32, ptr %2, align 4
  %13 = icmp sle i32 %12, 32767
  br i1 %13, label %14, label %15

14:                                               ; preds = %11
  store ptr @.str.1220, ptr %3, align 8
  br label %16

15:                                               ; preds = %11, %8
  store ptr @.str.275, ptr %3, align 8
  br label %16

16:                                               ; preds = %15, %14
  br label %17

17:                                               ; preds = %16, %1
  %18 = load ptr, ptr %3, align 8
  call void @llvm.lifetime.end.p0(i64 8, ptr %3) #8
  ret ptr %18
}

; Function Attrs: null_pointer_is_valid sspstrong uwtable
define internal zeroext i8 @elem_so_aux(ptr noundef %0, ptr noundef %1, ptr noundef %2, i32 noundef %3, i32 noundef %4, ptr noundef %5) #1 {
  %7 = alloca ptr, align 8
  %8 = alloca ptr, align 8
  %9 = alloca ptr, align 8
  %10 = alloca i32, align 4
  %11 = alloca i32, align 4
  %12 = alloca ptr, align 8
  store ptr %0, ptr %7, align 8
  store ptr %1, ptr %8, align 8
  store ptr %2, ptr %9, align 8
  store i32 %3, ptr %10, align 4
  store i32 %4, ptr %11, align 4
  store ptr %5, ptr %12, align 8
  %13 = load ptr, ptr %9, align 8
  %14 = load i32, ptr @hf_ansi_a_so_proprietary_ind, align 4
  %15 = load ptr, ptr %7, align 8
  %16 = load i32, ptr %10, align 4
  %17 = call ptr @proto_tree_add_item(ptr noundef %13, i32 noundef %14, ptr noundef %15, i32 noundef %16, i32 noundef 2, i32 noundef 0)
  %18 = load ptr, ptr %9, align 8
  %19 = load i32, ptr @hf_ansi_a_so_revision, align 4
  %20 = load ptr, ptr %7, align 8
  %21 = load i32, ptr %10, align 4
  %22 = call ptr @proto_tree_add_item(ptr noundef %18, i32 noundef %19, ptr noundef %20, i32 noundef %21, i32 noundef 2, i32 noundef 0)
  %23 = load ptr, ptr %9, align 8
  %24 = load i32, ptr @hf_ansi_a_so_base_so_num, align 4
  %25 = load ptr, ptr %7, align 8
  %26 = load i32, ptr %10, align 4
  %27 = call ptr @proto_tree_add_item(ptr noundef %23, i32 noundef %24, ptr noundef %25, i32 noundef %26, i32 noundef 2, i32 noundef 0)
  %28 = load ptr, ptr %7, align 8
  %29 = load i32, ptr %10, align 4
  %30 = call zeroext i16 @tvb_get_ntohs(ptr noundef %28, i32 noundef %29)
  %31 = load ptr, ptr %12, align 8
  store i16 %30, ptr %31, align 2
  %32 = load ptr, ptr %9, align 8
  %33 = load i32, ptr @hf_ansi_a_so, align 4
  %34 = load ptr, ptr %7, align 8
  %35 = load i32, ptr %10, align 4
  %36 = load ptr, ptr %12, align 8
  %37 = load i16, ptr %36, align 2
  %38 = zext i16 %37 to i32
  %39 = load ptr, ptr %12, align 8
  %40 = load i16, ptr %39, align 2
  %41 = zext i16 %40 to i32
  %42 = call ptr @ansi_a_so_int_to_str(i32 noundef %41)
  %43 = call ptr (ptr, i32, ptr, i32, i32, i32, ptr, ...) @proto_tree_add_uint_format(ptr noundef %32, i32 noundef %33, ptr noundef %34, i32 noundef %35, i32 noundef 2, i32 noundef %38, ptr noundef @.str.1018, ptr noundef %42)
  ret i8 2
}

; Function Attrs: null_pointer_is_valid sspstrong uwtable
define internal zeroext i8 @elem_so(ptr noundef %0, ptr noundef %1, ptr noundef %2, i32 noundef %3, i32 noundef %4, ptr noundef %5) #1 {
  %7 = alloca ptr, align 8
  %8 = alloca ptr, align 8
  %9 = alloca ptr, align 8
  %10 = alloca i32, align 4
  %11 = alloca i32, align 4
  %12 = alloca ptr, align 8
  %13 = alloca i16, align 2
  %14 = alloca i32, align 4
  store ptr %0, ptr %7, align 8
  store ptr %1, ptr %8, align 8
  store ptr %2, ptr %9, align 8
  store i32 %3, ptr %10, align 4
  store i32 %4, ptr %11, align 4
  store ptr %5, ptr %12, align 8
  call void @llvm.lifetime.start.p0(i64 2, ptr %13) #8
  call void @llvm.lifetime.start.p0(i64 4, ptr %14) #8
  %15 = load i32, ptr %10, align 4
  %16 = load ptr, ptr %7, align 8
  %17 = load ptr, ptr %8, align 8
  %18 = load ptr, ptr %9, align 8
  %19 = load i32, ptr %10, align 4
  %20 = load i32, ptr %11, align 4
  %21 = call zeroext i8 @elem_so_aux(ptr noundef %16, ptr noundef %17, ptr noundef %18, i32 noundef %19, i32 noundef %20, ptr noundef %13)
  %22 = zext i8 %21 to i32
  %23 = add i32 %15, %22
  store i32 %23, ptr %14, align 4
  %24 = load ptr, ptr %12, align 8
  %25 = getelementptr inbounds nuw %struct.ansi_a_shared_data_t, ptr %24, i32 0, i32 2
  %26 = load ptr, ptr %25, align 8
  %27 = load i16, ptr %13, align 2
  %28 = zext i16 %27 to i32
  %29 = load i16, ptr %13, align 2
  %30 = zext i16 %29 to i32
  %31 = call ptr @ansi_a_so_int_to_str(i32 noundef %30)
  call void (ptr, ptr, ...) @proto_item_append_text(ptr noundef %26, ptr noundef @.str.1026, i32 noundef %28, ptr noundef %31)
  %32 = load ptr, ptr %12, align 8
  %33 = getelementptr inbounds nuw %struct.ansi_a_shared_data_t, ptr %32, i32 0, i32 1
  %34 = load ptr, ptr %33, align 8
  %35 = icmp ne ptr %34, null
  br i1 %35, label %36, label %42

36:                                               ; preds = %6
  %37 = load ptr, ptr %12, align 8
  %38 = getelementptr inbounds nuw %struct.ansi_a_shared_data_t, ptr %37, i32 0, i32 1
  %39 = load ptr, ptr %38, align 8
  %40 = load i16, ptr %13, align 2
  %41 = zext i16 %40 to i32
  call void (ptr, ptr, ...) @proto_item_append_text(ptr noundef %39, ptr noundef @.str.1387, i32 noundef %41)
  br label %42

42:                                               ; preds = %36, %6
  %43 = load i8, ptr @global_a_info_display, align 1, !range !18, !noundef !19
  %44 = trunc i8 %43 to i1
  br i1 %44, label %45, label %51

45:                                               ; preds = %42
  %46 = load ptr, ptr %8, align 8
  %47 = getelementptr inbounds nuw %struct._packet_info, ptr %46, i32 0, i32 1
  %48 = load ptr, ptr %47, align 8
  %49 = load i16, ptr %13, align 2
  %50 = zext i16 %49 to i32
  call void (ptr, i32, ptr, ...) @col_append_fstr(ptr noundef %48, i32 noundef 25, ptr noundef @.str.1388, i32 noundef %50)
  br label %51

51:                                               ; preds = %45, %42
  %52 = load i32, ptr %14, align 4
  %53 = load i32, ptr %10, align 4
  %54 = sub i32 %52, %53
  %55 = trunc i32 %54 to i8
  call void @llvm.lifetime.end.p0(i64 4, ptr %14) #8
  call void @llvm.lifetime.end.p0(i64 2, ptr %13) #8
  ret i8 %55
}