; Function Attrs: null_pointer_is_valid sspstrong uwtable
define internal noundef zeroext i8 @elem_so(ptr noundef %0, ptr noundef readonly captures(none) %1, ptr noundef %2, i32 noundef %3, i32 %4, ptr noundef readonly captures(none) %5) #1 {
  %7 = load i32, ptr @hf_ansi_a_so_proprietary_ind, align 4
  %8 = tail call ptr @proto_tree_add_item(ptr noundef %2, i32 noundef %7, ptr noundef %0, i32 noundef %3, i32 noundef 2, i32 noundef 0)
  %9 = load i32, ptr @hf_ansi_a_so_revision, align 4
  %10 = tail call ptr @proto_tree_add_item(ptr noundef %2, i32 noundef %9, ptr noundef %0, i32 noundef %3, i32 noundef 2, i32 noundef 0)
  %11 = load i32, ptr @hf_ansi_a_so_base_so_num, align 4
  %12 = tail call ptr @proto_tree_add_item(ptr noundef %2, i32 noundef %11, ptr noundef %0, i32 noundef %3, i32 noundef 2, i32 noundef 0)
  %13 = tail call zeroext i16 @tvb_get_ntohs(ptr noundef %0, i32 noundef %3)
  %14 = load i32, ptr @hf_ansi_a_so, align 4
  %15 = zext i16 %13 to i32
  %16 = tail call ptr @try_val_to_str_ext(i32 noundef range(i32 0, 65536) %15, ptr noundef nonnull @ansi_a_so_str_vals_ext)
  %17 = icmp eq ptr %16, null
  %or.cond.i.i = icmp sgt i16 %13, 4104
  %.str.1220..str.275.i.i = select i1 %or.cond.i.i, ptr @.str.1220, ptr @.str.275
  %.0.i.i = select i1 %17, ptr %.str.1220..str.275.i.i, ptr %16
  %18 = tail call ptr (ptr, i32, ptr, i32, i32, i32, ptr, ...) @proto_tree_add_uint_format(ptr noundef %2, i32 noundef %14, ptr noundef %0, i32 noundef %3, i32 noundef 2, i32 noundef %15, ptr noundef nonnull @.str.1018, ptr noundef nonnull %.0.i.i)
  %19 = getelementptr inbounds nuw i8, ptr %5, i64 16
  %20 = load ptr, ptr %19, align 8
  %21 = tail call ptr @try_val_to_str_ext(i32 noundef range(i32 0, 65536) %15, ptr noundef nonnull @ansi_a_so_str_vals_ext)
  %22 = icmp eq ptr %21, null
  %.0.i = select i1 %22, ptr %.str.1220..str.275.i.i, ptr %21
  tail call void (ptr, ptr, ...) @proto_item_append_text(ptr noundef %20, ptr noundef nonnull @.str.1026, i32 noundef %15, ptr noundef nonnull %.0.i)
  %23 = getelementptr inbounds nuw i8, ptr %5, i64 8
  %24 = load ptr, ptr %23, align 8
  %.not = icmp eq ptr %24, null
  br i1 %.not, label %26, label %25

25:                                               ; preds = %6
  tail call void (ptr, ptr, ...) @proto_item_append_text(ptr noundef nonnull %24, ptr noundef nonnull @.str.1387, i32 noundef %15)
  br label %26

26:                                               ; preds = %25, %6
  %27 = load i8, ptr @global_a_info_display, align 1, !range !19, !noundef !20
  %28 = trunc nuw i8 %27 to i1
  br i1 %28, label %29, label %32

29:                                               ; preds = %26
  %30 = getelementptr inbounds nuw i8, ptr %1, i64 8
  %31 = load ptr, ptr %30, align 8
  tail call void (ptr, i32, ptr, ...) @col_append_fstr(ptr noundef %31, i32 noundef 25, ptr noundef nonnull @.str.1388, i32 noundef %15)
  br label %32

32:                                               ; preds = %29, %26
  ret i8 2
}